target datalayout = "e-m:e-p270:32:32-p271:32:32-p272:64:64-i64:64-i128:128-f80:128-n8:16:32:64-S128"
target triple = "x86_64-pc-linux-gnu"

%struct.IpoptProblemInfo = type { %"class.Ipopt::SmartPtr", %"class.Ipopt::SmartPtr.0", i32, ptr, ptr, i32, ptr, ptr, i32, i32, i32, ptr, ptr, ptr, ptr, ptr, ptr, double, ptr, ptr }
%"class.Ipopt::SmartPtr" = type { ptr }
%"class.Ipopt::SmartPtr.0" = type { ptr }
%"class.Ipopt::ReferencedObject.base" = type <{ ptr, i32 }>
%"class.Ipopt::StdInterfaceTNLP" = type { %"class.Ipopt::TNLP.base", %"class.Ipopt::SmartPtr.16", i32, i32, ptr, ptr, ptr, ptr, i32, i32, i32, ptr, ptr, ptr, ptr, ptr, ptr, ptr, ptr, ptr, ptr, ptr, double, ptr, ptr, ptr, ptr, ptr, ptr, ptr, ptr, ptr, ptr, ptr }
%"class.Ipopt::TNLP.base" = type { %"class.Ipopt::ReferencedObject.base" }
%"class.Ipopt::SmartPtr.16" = type { ptr }

; Function Attrs: mustprogress uwtable
define linkonce_odr noundef zeroext i1 @_ZNK5Ipopt16StdInterfaceTNLP16get_curr_iterateEbiPdS1_S1_iS1_S1_(ptr noundef nonnull align 8 dereferenceable(264) %0, i1 noundef zeroext %1, i32 noundef %2, ptr noundef %3, ptr noundef %4, ptr noundef %5, i32 noundef %6, ptr noundef %7, ptr noundef %8) #4 comdat align 2 {
  %10 = alloca ptr, align 8
  %11 = alloca i8, align 1
  %12 = alloca i32, align 4
  %13 = alloca ptr, align 8
  %14 = alloca ptr, align 8
  %15 = alloca ptr, align 8
  %16 = alloca i32, align 4
  %17 = alloca ptr, align 8
  %18 = alloca ptr, align 8
  store ptr %0, ptr %10, align 8, !tbaa !39
  %19 = zext i1 %1 to i8
  store i8 %19, ptr %11, align 1, !tbaa !44
  store i32 %2, ptr %12, align 4, !tbaa !3
  store ptr %3, ptr %13, align 8, !tbaa !7
  store ptr %4, ptr %14, align 8, !tbaa !7
  store ptr %5, ptr %15, align 8, !tbaa !7
  store i32 %6, ptr %16, align 4, !tbaa !3
  store ptr %7, ptr %17, align 8, !tbaa !7
  store ptr %8, ptr %18, align 8, !tbaa !7
  %20 = load ptr, ptr %10, align 8
  %21 = getelementptr inbounds nuw %"class.Ipopt::StdInterfaceTNLP", ptr %20, i32 0, i32 32
  %22 = load ptr, ptr %21, align 8, !tbaa !104
  %23 = getelementptr inbounds nuw %"class.Ipopt::StdInterfaceTNLP", ptr %20, i32 0, i32 33
  %24 = load ptr, ptr %23, align 8, !tbaa !108
  %25 = load i8, ptr %11, align 1, !tbaa !44, !range !67, !noundef !68
  %26 = trunc i8 %25 to i1
  %27 = load i32, ptr %12, align 4, !tbaa !3
  %28 = load ptr, ptr %13, align 8, !tbaa !7
  %29 = load ptr, ptr %14, align 8, !tbaa !7
  %30 = load ptr, ptr %15, align 8, !tbaa !7
  %31 = load i32, ptr %16, align 4, !tbaa !3
  %32 = load ptr, ptr %17, align 8, !tbaa !7
  %33 = load ptr, ptr %18, align 8, !tbaa !7
  %34 = call noundef zeroext i1 @_ZNK5Ipopt4TNLP16get_curr_iterateEPKNS_9IpoptDataEPNS_25IpoptCalculatedQuantitiesEbiPdS6_S6_iS6_S6_(ptr noundef nonnull align 8 dereferenceable(12) %20, ptr noundef %22, ptr noundef %24, i1 noundef zeroext %26, i32 noundef %27, ptr noundef %28, ptr noundef %29, ptr noundef %30, i32 noundef %31, ptr noundef %32, ptr noundef %33)
  ret i1 %34
}

; Function Attrs: mustprogress nounwind uwtable
define linkonce_odr noundef ptr @_ZNK5Ipopt8SmartPtrINS_16StdInterfaceTNLPEEptEv(ptr noundef nonnull align 8 dereferenceable(8) %0) #10 comdat align 2 {
  %2 = alloca ptr, align 8
  store ptr %0, ptr %2, align 8, !tbaa !37
  %3 = load ptr, ptr %2, align 8
  %4 = getelementptr inbounds nuw %"class.Ipopt::SmartPtr.0", ptr %3, i32 0, i32 0
  %5 = load ptr, ptr %4, align 8, !tbaa !103
  ret ptr %5
}

; Function Attrs: mustprogress nounwind uwtable
define linkonce_odr noundef zeroext i1 @_ZN5Ipopt6IsNullINS_16StdInterfaceTNLPEEEbRKNS_8SmartPtrIT_EE(ptr noundef nonnull align 8 dereferenceable(8) %0) #10 comdat {
  %2 = alloca ptr, align 8
  store ptr %0, ptr %2, align 8, !tbaa !37
  %3 = load ptr, ptr %2, align 8, !tbaa !37
  %4 = getelementptr inbounds nuw %"class.Ipopt::SmartPtr.0", ptr %3, i32 0, i32 0
  %5 = load ptr, ptr %4, align 8, !tbaa !103
  %6 = icmp eq ptr %5, null
  ret i1 %6
}

; Function Attrs: mustprogress uwtable
define zeroext i1 @GetIpoptCurrentIterate(ptr noundef %0, i1 noundef zeroext %1, i32 noundef %2, ptr noundef %3, ptr noundef %4, ptr noundef %5, i32 noundef %6, ptr noundef %7, ptr noundef %8) #4 {
  %10 = alloca i1, align 1
  %11 = alloca ptr, align 8
  %12 = alloca i8, align 1
  %13 = alloca i32, align 4
  %14 = alloca ptr, align 8
  %15 = alloca ptr, align 8
  %16 = alloca ptr, align 8
  %17 = alloca i32, align 4
  %18 = alloca ptr, align 8
  %19 = alloca ptr, align 8
  store ptr %0, ptr %11, align 8, !tbaa !11
  %20 = zext i1 %1 to i8
  store i8 %20, ptr %12, align 1, !tbaa !44
  store i32 %2, ptr %13, align 4, !tbaa !3
  store ptr %3, ptr %14, align 8, !tbaa !7
  store ptr %4, ptr %15, align 8, !tbaa !7
  store ptr %5, ptr %16, align 8, !tbaa !7
  store i32 %6, ptr %17, align 4, !tbaa !3
  store ptr %7, ptr %18, align 8, !tbaa !7
  store ptr %8, ptr %19, align 8, !tbaa !7
  %21 = load ptr, ptr %11, align 8, !tbaa !11
  %22 = getelementptr inbounds nuw %struct.IpoptProblemInfo, ptr %21, i32 0, i32 1
  %23 = call noundef zeroext i1 @_ZN5Ipopt6IsNullINS_16StdInterfaceTNLPEEEbRKNS_8SmartPtrIT_EE(ptr noundef nonnull align 8 dereferenceable(8) %22)
  br i1 %23, label %24, label %25

24:                                               ; preds = %9
  store i1 false, ptr %10, align 1
  br label %39

25:                                               ; preds = %9
  %26 = load ptr, ptr %11, align 8, !tbaa !11
  %27 = getelementptr inbounds nuw %struct.IpoptProblemInfo, ptr %26, i32 0, i32 1
  %28 = call noundef ptr @_ZNK5Ipopt8SmartPtrINS_16StdInterfaceTNLPEEptEv(ptr noundef nonnull align 8 dereferenceable(8) %27)
  %29 = load i8, ptr %12, align 1, !tbaa !44, !range !67, !noundef !68
  %30 = trunc i8 %29 to i1
  %31 = load i32, ptr %13, align 4, !tbaa !3
  %32 = load ptr, ptr %14, align 8, !tbaa !7
  %33 = load ptr, ptr %15, align 8, !tbaa !7
  %34 = load ptr, ptr %16, align 8, !tbaa !7
  %35 = load i32, ptr %17, align 4, !tbaa !3
  %36 = load ptr, ptr %18, align 8, !tbaa !7
  %37 = load ptr, ptr %19, align 8, !tbaa !7
  %38 = call noundef zeroext i1 @_ZNK5Ipopt16StdInterfaceTNLP16get_curr_iterateEbiPdS1_S1_iS1_S1_(ptr noundef nonnull align 8 dereferenceable(264) %28, i1 noundef zeroext %30, i32 noundef %31, ptr noundef %32, ptr noundef %33, ptr noundef %34, i32 noundef %35, ptr noundef %36, ptr noundef %37)
  store i1 %38, ptr %10, align 1
  br label %39

39:                                               ; preds = %25, %24
  %40 = load i1, ptr %10, align 1
  ret i1 %40
}