; Function Attrs: mustprogress uwtable
define noundef zeroext i1 @GetIpoptCurrentIterate(ptr noundef readonly captures(none) %0, i1 noundef zeroext %1, i32 noundef %2, ptr noundef %3, ptr noundef %4, ptr noundef %5, i32 noundef %6, ptr noundef %7, ptr noundef %8) local_unnamed_addr #3 {
  %10 = getelementptr inbounds nuw i8, ptr %0, i64 8
  %11 = load ptr, ptr %10, align 8, !tbaa !58
  %12 = icmp eq ptr %11, null
  br i1 %12, label %19, label %13

13:                                               ; preds = %9
  %14 = getelementptr inbounds nuw i8, ptr %11, i64 248
  %15 = load ptr, ptr %14, align 8, !tbaa !75
  %16 = getelementptr inbounds nuw i8, ptr %11, i64 256
  %17 = load ptr, ptr %16, align 8, !tbaa !79
  %18 = tail call noundef zeroext i1 @_ZNK5Ipopt4TNLP16get_curr_iterateEPKNS_9IpoptDataEPNS_25IpoptCalculatedQuantitiesEbiPdS6_S6_iS6_S6_(ptr noundef nonnull align 8 dereferenceable(264) %11, ptr noundef %15, ptr noundef %17, i1 noundef zeroext %1, i32 noundef %2, ptr noundef %3, ptr noundef %4, ptr noundef %5, i32 noundef %6, ptr noundef %7, ptr noundef %8)
  br label %19

19:                                               ; preds = %9, %13
  %.0 = phi i1 [ %18, %13 ], [ false, %9 ]
  ret i1 %.0
}